target datalayout = "e-m:e-p270:32:32-p271:32:32-p272:64:64-i64:64-i128:128-f80:128-n8:16:32:64-S128"
target triple = "x86_64-pc-linux-gnu"

; Function Attrs: mustprogress uwtable
define internal noundef signext i8 @_ZL12getStatePropPA256_KiPai(ptr noundef %0, ptr noundef %1, i32 noundef %2) #0 {
  %4 = alloca i8, align 1
  %5 = alloca ptr, align 8
  %6 = alloca ptr, align 8
  %7 = alloca i32, align 4
  %8 = alloca ptr, align 8
  %9 = alloca i32, align 4
  %10 = alloca i32, align 4
  %11 = alloca i32, align 4
  %12 = alloca i32, align 4
  %13 = alloca i32, align 4
  store ptr %0, ptr %5, align 8, !tbaa !41
  store ptr %1, ptr %6, align 8, !tbaa !39
  store i32 %2, ptr %7, align 4, !tbaa !28
  call void @llvm.lifetime.start.p0(i64 8, ptr %8) #10
  call void @llvm.lifetime.start.p0(i64 4, ptr %9) #10
  call void @llvm.lifetime.start.p0(i64 4, ptr %10) #10
  call void @llvm.lifetime.start.p0(i64 4, ptr %11) #10
  call void @llvm.lifetime.start.p0(i64 4, ptr %12) #10
  %14 = load ptr, ptr %5, align 8, !tbaa !41
  %15 = load i32, ptr %7, align 4, !tbaa !28
  %16 = sext i32 %15 to i64
  %17 = getelementptr inbounds [256 x i32], ptr %14, i64 %16
  %18 = getelementptr inbounds [256 x i32], ptr %17, i64 0, i64 0
  store ptr %18, ptr %8, align 8, !tbaa !41
  %19 = load ptr, ptr %6, align 8, !tbaa !39
  %20 = load i32, ptr %7, align 4, !tbaa !28
  %21 = sext i32 %20 to i64
  %22 = getelementptr inbounds i8, ptr %19, i64 %21
  store i8 0, ptr %22, align 1, !tbaa !40
  store i32 0, ptr %9, align 4, !tbaa !28
  br label %23

23:                                               ; preds = %78, %3
  %24 = load ptr, ptr %8, align 8, !tbaa !41
  %25 = load i32, ptr %9, align 4, !tbaa !28
  %26 = sext i32 %25 to i64
  %27 = getelementptr inbounds i32, ptr %24, i64 %26
  %28 = load i32, ptr %27, align 4, !tbaa !28
  store i32 %28, ptr %11, align 4, !tbaa !28
  %29 = load i32, ptr %11, align 4, !tbaa !28
  %30 = lshr i32 %29, 24
  %31 = and i32 %30, 127
  store i32 %31, ptr %12, align 4, !tbaa !28
  %32 = load ptr, ptr %6, align 8, !tbaa !39
  %33 = load i32, ptr %12, align 4, !tbaa !28
  %34 = sext i32 %33 to i64
  %35 = getelementptr inbounds i8, ptr %32, i64 %34
  %36 = load i8, ptr %35, align 1, !tbaa !40
  %37 = sext i8 %36 to i32
  %38 = icmp eq i32 %37, -1
  br i1 %38, label %39, label %44

39:                                               ; preds = %23
  %40 = load ptr, ptr %5, align 8, !tbaa !41
  %41 = load ptr, ptr %6, align 8, !tbaa !39
  %42 = load i32, ptr %12, align 4, !tbaa !28
  %43 = call noundef signext i8 @_ZL12getStatePropPA256_KiPai(ptr noundef %40, ptr noundef %41, i32 noundef %42)
  br label %44

44:                                               ; preds = %39, %23
  %45 = load i32, ptr %11, align 4, !tbaa !28
  %46 = icmp sge i32 %45, 0
  br i1 %46, label %47, label %57

47:                                               ; preds = %44
  %48 = load ptr, ptr %6, align 8, !tbaa !39
  %49 = load i32, ptr %12, align 4, !tbaa !28
  %50 = sext i32 %49 to i64
  %51 = getelementptr inbounds i8, ptr %48, i64 %50
  %52 = load i8, ptr %51, align 1, !tbaa !40
  %53 = sext i8 %52 to i32
  %54 = icmp sge i32 %53, 0
  br i1 %54, label %55, label %56

55:                                               ; preds = %47
  br label %81

56:                                               ; preds = %47
  br label %64

57:                                               ; preds = %44
  %58 = load i32, ptr %11, align 4, !tbaa !28
  %59 = lshr i32 %58, 20
  %60 = and i32 %59, 15
  %61 = icmp ult i32 %60, 6
  br i1 %61, label %62, label %63

62:                                               ; preds = %57
  br label %81

63:                                               ; preds = %57
  br label %64

64:                                               ; preds = %63, %56
  %65 = load i32, ptr %9, align 4, !tbaa !28
  %66 = icmp eq i32 %65, 255
  br i1 %66, label %67, label %77

67:                                               ; preds = %64
  %68 = load ptr, ptr %6, align 8, !tbaa !39
  %69 = load i32, ptr %7, align 4, !tbaa !28
  %70 = sext i32 %69 to i64
  %71 = getelementptr inbounds i8, ptr %68, i64 %70
  store i8 -64, ptr %71, align 1, !tbaa !40
  %72 = load ptr, ptr %6, align 8, !tbaa !39
  %73 = load i32, ptr %7, align 4, !tbaa !28
  %74 = sext i32 %73 to i64
  %75 = getelementptr inbounds i8, ptr %72, i64 %74
  %76 = load i8, ptr %75, align 1, !tbaa !40
  store i8 %76, ptr %4, align 1
  store i32 1, ptr %13, align 4
  br label %217

77:                                               ; preds = %64
  br label %78

78:                                               ; preds = %77
  %79 = load i32, ptr %9, align 4, !tbaa !28
  %80 = add nsw i32 %79, 1
  store i32 %80, ptr %9, align 4, !tbaa !28
  br label %23, !llvm.loop !204

81:                                               ; preds = %62, %55
  %82 = load i32, ptr %9, align 4, !tbaa !28
  %83 = ashr i32 %82, 5
  %84 = shl i32 %83, 3
  %85 = trunc i32 %84 to i8
  %86 = sext i8 %85 to i32
  %87 = load ptr, ptr %6, align 8, !tbaa !39
  %88 = load i32, ptr %7, align 4, !tbaa !28
  %89 = sext i32 %88 to i64
  %90 = getelementptr inbounds i8, ptr %87, i64 %89
  %91 = load i8, ptr %90, align 1, !tbaa !40
  %92 = sext i8 %91 to i32
  %93 = or i32 %92, %86
  %94 = trunc i32 %93 to i8
  store i8 %94, ptr %90, align 1, !tbaa !40
  store i32 255, ptr %10, align 4, !tbaa !28
  br label %95

95:                                               ; preds = %141, %81
  %96 = load i32, ptr %9, align 4, !tbaa !28
  %97 = load i32, ptr %10, align 4, !tbaa !28
  %98 = icmp slt i32 %96, %97
  br i1 %98, label %99, label %144

99:                                               ; preds = %95
  %100 = load ptr, ptr %8, align 8, !tbaa !41
  %101 = load i32, ptr %10, align 4, !tbaa !28
  %102 = sext i32 %101 to i64
  %103 = getelementptr inbounds i32, ptr %100, i64 %102
  %104 = load i32, ptr %103, align 4, !tbaa !28
  store i32 %104, ptr %11, align 4, !tbaa !28
  %105 = load i32, ptr %11, align 4, !tbaa !28
  %106 = lshr i32 %105, 24
  %107 = and i32 %106, 127
  store i32 %107, ptr %12, align 4, !tbaa !28
  %108 = load ptr, ptr %6, align 8, !tbaa !39
  %109 = load i32, ptr %12, align 4, !tbaa !28
  %110 = sext i32 %109 to i64
  %111 = getelementptr inbounds i8, ptr %108, i64 %110
  %112 = load i8, ptr %111, align 1, !tbaa !40
  %113 = sext i8 %112 to i32
  %114 = icmp eq i32 %113, -1
  br i1 %114, label %115, label %120

115:                                              ; preds = %99
  %116 = load ptr, ptr %5, align 8, !tbaa !41
  %117 = load ptr, ptr %6, align 8, !tbaa !39
  %118 = load i32, ptr %12, align 4, !tbaa !28
  %119 = call noundef signext i8 @_ZL12getStatePropPA256_KiPai(ptr noundef %116, ptr noundef %117, i32 noundef %118)
  br label %120

120:                                              ; preds = %115, %99
  %121 = load i32, ptr %11, align 4, !tbaa !28
  %122 = icmp sge i32 %121, 0
  br i1 %122, label %123, label %133

123:                                              ; preds = %120
  %124 = load ptr, ptr %6, align 8, !tbaa !39
  %125 = load i32, ptr %12, align 4, !tbaa !28
  %126 = sext i32 %125 to i64
  %127 = getelementptr inbounds i8, ptr %124, i64 %126
  %128 = load i8, ptr %127, align 1, !tbaa !40
  %129 = sext i8 %128 to i32
  %130 = icmp sge i32 %129, 0
  br i1 %130, label %131, label %132

131:                                              ; preds = %123
  br label %144

132:                                              ; preds = %123
  br label %140

133:                                              ; preds = %120
  %134 = load i32, ptr %11, align 4, !tbaa !28
  %135 = lshr i32 %134, 20
  %136 = and i32 %135, 15
  %137 = icmp ult i32 %136, 6
  br i1 %137, label %138, label %139

138:                                              ; preds = %133
  br label %144

139:                                              ; preds = %133
  br label %140

140:                                              ; preds = %139, %132
  br label %141

141:                                              ; preds = %140
  %142 = load i32, ptr %10, align 4, !tbaa !28
  %143 = add nsw i32 %142, -1
  store i32 %143, ptr %10, align 4, !tbaa !28
  br label %95, !llvm.loop !205

144:                                              ; preds = %138, %131, %95
  %145 = load i32, ptr %10, align 4, !tbaa !28
  %146 = ashr i32 %145, 5
  %147 = trunc i32 %146 to i8
  %148 = sext i8 %147 to i32
  %149 = load ptr, ptr %6, align 8, !tbaa !39
  %150 = load i32, ptr %7, align 4, !tbaa !28
  %151 = sext i32 %150 to i64
  %152 = getelementptr inbounds i8, ptr %149, i64 %151
  %153 = load i8, ptr %152, align 1, !tbaa !40
  %154 = sext i8 %153 to i32
  %155 = or i32 %154, %148
  %156 = trunc i32 %155 to i8
  store i8 %156, ptr %152, align 1, !tbaa !40
  br label %157

157:                                              ; preds = %208, %144
  %158 = load i32, ptr %9, align 4, !tbaa !28
  %159 = load i32, ptr %10, align 4, !tbaa !28
  %160 = icmp sle i32 %158, %159
  br i1 %160, label %161, label %211

161:                                              ; preds = %157
  %162 = load ptr, ptr %8, align 8, !tbaa !41
  %163 = load i32, ptr %9, align 4, !tbaa !28
  %164 = sext i32 %163 to i64
  %165 = getelementptr inbounds i32, ptr %162, i64 %164
  %166 = load i32, ptr %165, align 4, !tbaa !28
  store i32 %166, ptr %11, align 4, !tbaa !28
  %167 = load i32, ptr %11, align 4, !tbaa !28
  %168 = lshr i32 %167, 24
  %169 = and i32 %168, 127
  store i32 %169, ptr %12, align 4, !tbaa !28
  %170 = load ptr, ptr %6, align 8, !tbaa !39
  %171 = load i32, ptr %12, align 4, !tbaa !28
  %172 = sext i32 %171 to i64
  %173 = getelementptr inbounds i8, ptr %170, i64 %172
  %174 = load i8, ptr %173, align 1, !tbaa !40
  %175 = sext i8 %174 to i32
  %176 = icmp eq i32 %175, -1
  br i1 %176, label %177, label %182

177:                                              ; preds = %161
  %178 = load ptr, ptr %5, align 8, !tbaa !41
  %179 = load ptr, ptr %6, align 8, !tbaa !39
  %180 = load i32, ptr %12, align 4, !tbaa !28
  %181 = call noundef signext i8 @_ZL12getStatePropPA256_KiPai(ptr noundef %178, ptr noundef %179, i32 noundef %180)
  br label %182

182:                                              ; preds = %177, %161
  %183 = load i32, ptr %11, align 4, !tbaa !28
  %184 = icmp slt i32 %183, 0
  br i1 %184, label %185, label %208

185:                                              ; preds = %182
  %186 = load ptr, ptr %6, align 8, !tbaa !39
  %187 = load i32, ptr %12, align 4, !tbaa !28
  %188 = sext i32 %187 to i64
  %189 = getelementptr inbounds i8, ptr %186, i64 %188
  %190 = load i8, ptr %189, align 1, !tbaa !40
  %191 = sext i8 %190 to i32
  %192 = or i32 %191, 64
  %193 = trunc i32 %192 to i8
  store i8 %193, ptr %189, align 1, !tbaa !40
  %194 = load i32, ptr %11, align 4, !tbaa !28
  %195 = lshr i32 %194, 20
  %196 = and i32 %195, 15
  %197 = icmp ule i32 %196, 3
  br i1 %197, label %198, label %207

198:                                              ; preds = %185
  %199 = load ptr, ptr %6, align 8, !tbaa !39
  %200 = load i32, ptr %7, align 4, !tbaa !28
  %201 = sext i32 %200 to i64
  %202 = getelementptr inbounds i8, ptr %199, i64 %201
  %203 = load i8, ptr %202, align 1, !tbaa !40
  %204 = sext i8 %203 to i32
  %205 = or i32 %204, 64
  %206 = trunc i32 %205 to i8
  store i8 %206, ptr %202, align 1, !tbaa !40
  br label %207

207:                                              ; preds = %198, %185
  br label %208

208:                                              ; preds = %207, %182
  %209 = load i32, ptr %9, align 4, !tbaa !28
  %210 = add nsw i32 %209, 1
  store i32 %210, ptr %9, align 4, !tbaa !28
  br label %157, !llvm.loop !206

211:                                              ; preds = %157
  %212 = load ptr, ptr %6, align 8, !tbaa !39
  %213 = load i32, ptr %7, align 4, !tbaa !28
  %214 = sext i32 %213 to i64
  %215 = getelementptr inbounds i8, ptr %212, i64 %214
  %216 = load i8, ptr %215, align 1, !tbaa !40
  store i8 %216, ptr %4, align 1
  store i32 1, ptr %13, align 4
  br label %217

217:                                              ; preds = %211, %67
  call void @llvm.lifetime.end.p0(i64 4, ptr %12) #10
  call void @llvm.lifetime.end.p0(i64 4, ptr %11) #10
  call void @llvm.lifetime.end.p0(i64 4, ptr %10) #10
  call void @llvm.lifetime.end.p0(i64 4, ptr %9) #10
  call void @llvm.lifetime.end.p0(i64 8, ptr %8) #10
  %218 = load i8, ptr %4, align 1
  ret i8 %218
}