; Function Attrs: mustprogress nofree nosync nounwind memory(argmem: readwrite) uwtable
define internal fastcc void @_ZL12getStatePropPA256_KiPai(ptr noundef %0, ptr noundef nonnull %1, i32 noundef range(i32 0, 128) %2) unnamed_addr #10 {
  %4 = zext nneg i32 %2 to i64
  %5 = getelementptr inbounds nuw [256 x i32], ptr %0, i64 %4
  %6 = getelementptr inbounds nuw i8, ptr %1, i64 %4
  store i8 0, ptr %6, align 1, !tbaa !28
  br label %7

7:                                                ; preds = %28, %3
  %indvars.iv82 = phi i32 [ %indvars.iv.next83, %28 ], [ 0, %3 ]
  %indvars.iv = phi i64 [ %indvars.iv.next, %28 ], [ 0, %3 ]
  %8 = getelementptr inbounds nuw i32, ptr %5, i64 %indvars.iv
  %9 = load i32, ptr %8, align 4, !tbaa !27
  %10 = lshr i32 %9, 24
  %11 = and i32 %10, 127
  %12 = zext nneg i32 %11 to i64
  %13 = getelementptr inbounds nuw i8, ptr %1, i64 %12
  %14 = load i8, ptr %13, align 1, !tbaa !28
  %15 = icmp eq i8 %14, -1
  br i1 %15, label %16, label %17

16:                                               ; preds = %7
  tail call fastcc void @_ZL12getStatePropPA256_KiPai(ptr noundef nonnull %0, ptr noundef %1, i32 noundef %11)
  br label %17

17:                                               ; preds = %16, %7
  %18 = icmp sgt i32 %9, -1
  br i1 %18, label %19, label %22

19:                                               ; preds = %17
  %20 = load i8, ptr %13, align 1, !tbaa !28
  %21 = icmp sgt i8 %20, -1
  br i1 %21, label %29, label %25

22:                                               ; preds = %17
  %23 = and i32 %9, 14680064
  %24 = icmp samesign ult i32 %23, 6291456
  br i1 %24, label %29, label %25

25:                                               ; preds = %22, %19
  %26 = icmp eq i64 %indvars.iv, 255
  br i1 %26, label %27, label %28

27:                                               ; preds = %25
  store i8 -64, ptr %6, align 1, !tbaa !28
  br label %._crit_edge77

28:                                               ; preds = %25
  %indvars.iv.next = add nuw nsw i64 %indvars.iv, 1
  %indvars.iv.next83 = add nuw nsw i32 %indvars.iv82, 1
  br label %7, !llvm.loop !178

29:                                               ; preds = %22, %19
  %30 = trunc nuw nsw i64 %indvars.iv to i32
  %31 = load i8, ptr %6, align 1, !tbaa !28
  %32 = lshr i64 %indvars.iv, 2
  %33 = trunc i64 %32 to i8
  %34 = and i8 %33, -8
  %35 = or i8 %31, %34
  store i8 %35, ptr %6, align 1, !tbaa !28
  %36 = icmp samesign ult i64 %indvars.iv, 255
  br i1 %36, label %.lr.ph, label %._crit_edge

.lr.ph:                                           ; preds = %29, %54
  %indvars.iv80 = phi i64 [ %indvars.iv.next81, %54 ], [ 255, %29 ]
  %37 = getelementptr inbounds i32, ptr %5, i64 %indvars.iv80
  %38 = load i32, ptr %37, align 4, !tbaa !27
  %39 = lshr i32 %38, 24
  %40 = and i32 %39, 127
  %41 = zext nneg i32 %40 to i64
  %42 = getelementptr inbounds nuw i8, ptr %1, i64 %41
  %43 = load i8, ptr %42, align 1, !tbaa !28
  %44 = icmp eq i8 %43, -1
  br i1 %44, label %45, label %46

45:                                               ; preds = %.lr.ph
  tail call fastcc void @_ZL12getStatePropPA256_KiPai(ptr noundef nonnull %0, ptr noundef %1, i32 noundef %40)
  br label %46

46:                                               ; preds = %45, %.lr.ph
  %47 = icmp sgt i32 %38, -1
  br i1 %47, label %48, label %51

48:                                               ; preds = %46
  %49 = load i8, ptr %42, align 1, !tbaa !28
  %50 = icmp sgt i8 %49, -1
  br i1 %50, label %._crit_edge.loopexit.split.loop.exit96, label %54

51:                                               ; preds = %46
  %52 = and i32 %38, 14680064
  %53 = icmp samesign ult i32 %52, 6291456
  br i1 %53, label %._crit_edge.loopexit.split.loop.exit, label %54

54:                                               ; preds = %48, %51
  %indvars.iv.next81 = add nsw i64 %indvars.iv80, -1
  %55 = icmp ult i64 %indvars.iv, %indvars.iv.next81
  br i1 %55, label %.lr.ph, label %._crit_edge.loopexit, !llvm.loop !179

._crit_edge.loopexit.split.loop.exit:             ; preds = %51
  %56 = trunc nuw nsw i64 %indvars.iv80 to i32
  br label %._crit_edge.loopexit

._crit_edge.loopexit.split.loop.exit96:           ; preds = %48
  %57 = trunc nuw nsw i64 %indvars.iv80 to i32
  br label %._crit_edge.loopexit

._crit_edge.loopexit:                             ; preds = %54, %._crit_edge.loopexit.split.loop.exit96, %._crit_edge.loopexit.split.loop.exit
  %.0.lcssa.ph = phi i32 [ %56, %._crit_edge.loopexit.split.loop.exit ], [ %57, %._crit_edge.loopexit.split.loop.exit96 ], [ %indvars.iv82, %54 ]
  %.pre = load i8, ptr %6, align 1, !tbaa !28
  br label %._crit_edge

._crit_edge:                                      ; preds = %._crit_edge.loopexit, %29
  %58 = phi i8 [ %35, %29 ], [ %.pre, %._crit_edge.loopexit ]
  %.0.lcssa = phi i32 [ 255, %29 ], [ %.0.lcssa.ph, %._crit_edge.loopexit ]
  %59 = lshr i32 %.0.lcssa, 5
  %60 = trunc i32 %59 to i8
  %61 = or i8 %58, %60
  store i8 %61, ptr %6, align 1, !tbaa !28
  %.not73 = icmp slt i32 %.0.lcssa, %30
  br i1 %.not73, label %._crit_edge77, label %.lr.ph76.preheader

.lr.ph76.preheader:                               ; preds = %._crit_edge
  %62 = zext i32 %.0.lcssa to i64
  br label %.lr.ph76

.lr.ph76:                                         ; preds = %.lr.ph76.preheader, %82
  %indvars.iv87 = phi i64 [ %indvars.iv, %.lr.ph76.preheader ], [ %indvars.iv.next88, %82 ]
  %63 = getelementptr inbounds nuw i32, ptr %5, i64 %indvars.iv87
  %64 = load i32, ptr %63, align 4, !tbaa !27
  %65 = lshr i32 %64, 24
  %66 = and i32 %65, 127
  %67 = zext nneg i32 %66 to i64
  %68 = getelementptr inbounds nuw i8, ptr %1, i64 %67
  %69 = load i8, ptr %68, align 1, !tbaa !28
  %70 = icmp eq i8 %69, -1
  br i1 %70, label %71, label %72

71:                                               ; preds = %.lr.ph76
  tail call fastcc void @_ZL12getStatePropPA256_KiPai(ptr noundef nonnull %0, ptr noundef %1, i32 noundef %66)
  br label %72

72:                                               ; preds = %71, %.lr.ph76
  %73 = icmp slt i32 %64, 0
  br i1 %73, label %74, label %82

74:                                               ; preds = %72
  %75 = load i8, ptr %68, align 1, !tbaa !28
  %76 = or i8 %75, 64
  store i8 %76, ptr %68, align 1, !tbaa !28
  %77 = and i32 %64, 12582912
  %78 = icmp eq i32 %77, 0
  br i1 %78, label %79, label %82

79:                                               ; preds = %74
  %80 = load i8, ptr %6, align 1, !tbaa !28
  %81 = or i8 %80, 64
  store i8 %81, ptr %6, align 1, !tbaa !28
  br label %82

82:                                               ; preds = %74, %79, %72
  %indvars.iv.next88 = add nuw nsw i64 %indvars.iv87, 1
  %.not.not = icmp samesign ult i64 %indvars.iv87, %62
  br i1 %.not.not, label %.lr.ph76, label %._crit_edge77, !llvm.loop !180

._crit_edge77:                                    ; preds = %82, %._crit_edge, %27
  ret void
}